/*
 * Intel ACPI Component Architecture
 * AML/ASL+ Disassembler version 20260408 (64-bit version)
 * Copyright (c) 2000 - 2026 Intel Corporation
 * 
 * Disassembly of gtdt.dat
 *
 * ACPI Data Table [GTDT]
 *
 * Format: [HexOffset DecimalOffset ByteLength]  FieldName : FieldValue (in hex)
 */

[000h 0000 004h]                   Signature : "GTDT"    [Generic Timer Description Table]
[004h 0004 004h]                Table Length : 00000060
[008h 0008 001h]                    Revision : 02
[009h 0009 001h]                    Checksum : D8
[00Ah 0010 006h]                      Oem ID : "RKCP  "
[010h 0016 008h]                Oem Table ID : "RK3588  "
[018h 0024 004h]                Oem Revision : 00000000
[01Ch 0028 004h]             Asl Compiler ID : "EDK2"
[020h 0032 004h]       Asl Compiler Revision : 00000000

[024h 0036 008h]       Counter Block Address : FFFFFFFFFFFFFFFF
[02Ch 0044 004h]                    Reserved : 00000000

[030h 0048 004h]        Secure EL1 Interrupt : 0000001D
[034h 0052 004h]   EL1 Flags (decoded below) : 00000002
                                Trigger Mode : 0
                                    Polarity : 1
                                   Always On : 0

[038h 0056 004h]    Non-Secure EL1 Interrupt : 0000001E
[03Ch 0060 004h]  NEL1 Flags (decoded below) : 00000002
                                Trigger Mode : 0
                                    Polarity : 1
                                   Always On : 0

[040h 0064 004h]     Virtual Timer Interrupt : 0000001B
[044h 0068 004h]    VT Flags (decoded below) : 00000002
                                Trigger Mode : 0
                                    Polarity : 1
                                   Always On : 0

[048h 0072 004h]    Non-Secure EL2 Interrupt : 0000001A
[04Ch 0076 004h]  NEL2 Flags (decoded below) : 00000002
                                Trigger Mode : 0
                                    Polarity : 1
                                   Always On : 0
[050h 0080 008h]  Counter Read Block Address : FFFFFFFFFFFFFFFF

[058h 0088 004h]        Platform Timer Count : 00000000
[05Ch 0092 004h]       Platform Timer Offset : 00000000

Raw Table Data: Length 96 (0x60)

    0000: 47 54 44 54 60 00 00 00 02 D8 52 4B 43 50 20 20  // GTDT`.....RKCP  
    0010: 52 4B 33 35 38 38 20 20 00 00 00 00 45 44 4B 32  // RK3588  ....EDK2
    0020: 00 00 00 00 FF FF FF FF FF FF FF FF 00 00 00 00  // ................
    0030: 1D 00 00 00 02 00 00 00 1E 00 00 00 02 00 00 00  // ................
    0040: 1B 00 00 00 02 00 00 00 1A 00 00 00 02 00 00 00  // ................
    0050: FF FF FF FF FF FF FF FF 00 00 00 00 00 00 00 00  // ................
